target datalayout = "e-m:e-p270:32:32-p271:32:32-p272:64:64-i64:64-i128:128-f80:128-n8:16:32:64-S128"
target triple = "x86_64-pc-linux-gnu"

; Function Attrs: nounwind uwtable
define hidden i32 @SearchColorNoIdx(ptr noundef %0, i32 noundef %1, i32 noundef %2) #0 {
  %4 = alloca i32, align 4
  %5 = alloca ptr, align 8
  %6 = alloca i32, align 4
  %7 = alloca i32, align 4
  %8 = alloca i32, align 4
  %9 = alloca i32, align 4
  %10 = alloca i32, align 4
  %11 = alloca i32, align 4
  store ptr %0, ptr %5, align 8, !tbaa !3
  store i32 %1, ptr %6, align 4, !tbaa !8
  store i32 %2, ptr %7, align 4, !tbaa !8
  call void @llvm.lifetime.start.p0(i64 4, ptr %8) #6
  store i32 0, ptr %8, align 4, !tbaa !8
  call void @llvm.lifetime.start.p0(i64 4, ptr %9) #6
  %12 = load i32, ptr %7, align 4, !tbaa !8
  store i32 %12, ptr %9, align 4, !tbaa !8
  %13 = load ptr, ptr %5, align 8, !tbaa !3
  %14 = load i32, ptr %8, align 4, !tbaa !8
  %15 = sext i32 %14 to i64
  %16 = getelementptr inbounds i32, ptr %13, i64 %15
  %17 = load i32, ptr %16, align 4, !tbaa !8
  %18 = load i32, ptr %6, align 4, !tbaa !8
  %19 = icmp eq i32 %17, %18
  br i1 %19, label %20, label %22

20:                                               ; preds = %3
  %21 = load i32, ptr %8, align 4, !tbaa !8
  store i32 %21, ptr %4, align 4
  store i32 1, ptr %10, align 4
  br label %55

22:                                               ; preds = %3
  br label %23

23:                                               ; preds = %54, %22
  br label %24

24:                                               ; preds = %23
  call void @llvm.lifetime.start.p0(i64 4, ptr %11) #6
  %25 = load i32, ptr %8, align 4, !tbaa !8
  %26 = load i32, ptr %9, align 4, !tbaa !8
  %27 = add nsw i32 %25, %26
  %28 = ashr i32 %27, 1
  store i32 %28, ptr %11, align 4, !tbaa !8
  %29 = load ptr, ptr %5, align 8, !tbaa !3
  %30 = load i32, ptr %11, align 4, !tbaa !8
  %31 = sext i32 %30 to i64
  %32 = getelementptr inbounds i32, ptr %29, i64 %31
  %33 = load i32, ptr %32, align 4, !tbaa !8
  %34 = load i32, ptr %6, align 4, !tbaa !8
  %35 = icmp eq i32 %33, %34
  br i1 %35, label %36, label %38

36:                                               ; preds = %24
  %37 = load i32, ptr %11, align 4, !tbaa !8
  store i32 %37, ptr %4, align 4
  store i32 1, ptr %10, align 4
  br label %52

38:                                               ; preds = %24
  %39 = load ptr, ptr %5, align 8, !tbaa !3
  %40 = load i32, ptr %11, align 4, !tbaa !8
  %41 = sext i32 %40 to i64
  %42 = getelementptr inbounds i32, ptr %39, i64 %41
  %43 = load i32, ptr %42, align 4, !tbaa !8
  %44 = load i32, ptr %6, align 4, !tbaa !8
  %45 = icmp ult i32 %43, %44
  br i1 %45, label %46, label %48

46:                                               ; preds = %38
  %47 = load i32, ptr %11, align 4, !tbaa !8
  store i32 %47, ptr %8, align 4, !tbaa !8
  br label %50

48:                                               ; preds = %38
  %49 = load i32, ptr %11, align 4, !tbaa !8
  store i32 %49, ptr %9, align 4, !tbaa !8
  br label %50

50:                                               ; preds = %48, %46
  br label %51

51:                                               ; preds = %50
  store i32 0, ptr %10, align 4
  br label %52

52:                                               ; preds = %51, %36
  call void @llvm.lifetime.end.p0(i64 4, ptr %11) #6
  %53 = load i32, ptr %10, align 4
  switch i32 %53, label %55 [
    i32 0, label %54
  ]

54:                                               ; preds = %52
  br label %23

55:                                               ; preds = %52, %20
  call void @llvm.lifetime.end.p0(i64 4, ptr %9) #6
  call void @llvm.lifetime.end.p0(i64 4, ptr %8) #6
  %56 = load i32, ptr %4, align 4
  ret i32 %56
}