; Function Attrs: nofree norecurse nosync nounwind memory(argmem: read) uwtable
define hidden range(i32 -1073741824, 1073741824) i32 @SearchColorNoIdx(ptr noundef readonly captures(none) %0, i32 noundef %1, i32 noundef %2) local_unnamed_addr #0 {
  %4 = load i32, ptr %0, align 4, !tbaa !3
  %5 = icmp eq i32 %4, %1
  br i1 %5, label %.loopexit, label %.preheader

.preheader:                                       ; preds = %3, %.preheader
  %.021 = phi i32 [ %..021, %.preheader ], [ 0, %3 ]
  %.018 = phi i32 [ %.018., %.preheader ], [ %2, %3 ]
  %6 = add nsw i32 %.018, %.021
  %7 = ashr i32 %6, 1
  %8 = sext i32 %7 to i64
  %9 = getelementptr inbounds i32, ptr %0, i64 %8
  %10 = load i32, ptr %9, align 4, !tbaa !3
  %.not = icmp eq i32 %10, %1
  %11 = icmp ult i32 %10, %1
  %..021 = select i1 %11, i32 %7, i32 %.021
  %.018. = select i1 %11, i32 %.018, i32 %7
  br i1 %.not, label %.loopexit, label %.preheader

.loopexit:                                        ; preds = %.preheader, %3
  %.0 = phi i32 [ 0, %3 ], [ %7, %.preheader ]
  ret i32 %.0
}